target datalayout = "e-m:e-p270:32:32-p271:32:32-p272:64:64-i64:64-i128:128-f80:128-n8:16:32:64-S128"
target triple = "x86_64-unknown-linux-gnu"

%struct.HashMap = type { ptr, i32, i32 }
%struct.Scope = type { ptr, %struct.HashMap, %struct.HashMap }
%struct.Token = type { i32, ptr, i64, x86_fp80, ptr, i32, ptr, ptr, ptr, ptr, i32, i32, i8, i8, ptr, ptr }
%struct.Type = type { i32, i32, i32, i8, i8, ptr, ptr, ptr, ptr, i32, ptr, ptr, ptr, i8, i8, ptr, ptr, i8, ptr }
%struct.VarScope = type { ptr, ptr, ptr, i32 }

@scope = internal global ptr @.compoundliteral, align 8
@.str.57 = private unnamed_addr constant [2 x i8] c",\00", align 1
@.str.66 = private unnamed_addr constant [23 x i8] c"expected an identifier\00", align 1
@.str.99 = private unnamed_addr constant [2 x i8] c";\00", align 1
@.str.141 = private unnamed_addr constant [21 x i8] c"typedef name omitted\00", align 1

; Function Attrs: nounwind uwtable
define internal ptr @push_scope(ptr noundef %name) #0 {
entry:
  %name.addr = alloca ptr, align 8
  %sc = alloca ptr, align 8
  store ptr %name, ptr %name.addr, align 8
  %call = call noalias ptr @calloc(i64 noundef 1, i64 noundef 32) #8
  store ptr %call, ptr %sc, align 8
  %0 = load ptr, ptr @scope, align 8
  %vars = getelementptr inbounds %struct.Scope, ptr %0, i32 0, i32 1
  %1 = load ptr, ptr %name.addr, align 8
  %2 = load ptr, ptr %sc, align 8
  call void @hashmap_put(ptr noundef %vars, ptr noundef %1, ptr noundef %2)
  %3 = load ptr, ptr %sc, align 8
  ret ptr %3
}

; Function Attrs: nounwind uwtable
define internal ptr @get_ident(ptr noundef %tok) #0 {
entry:
  %tok.addr = alloca ptr, align 8
  store ptr %tok, ptr %tok.addr, align 8
  %0 = load ptr, ptr %tok.addr, align 8
  %kind = getelementptr inbounds %struct.Token, ptr %0, i32 0, i32 0
  %1 = load i32, ptr %kind, align 16
  %cmp = icmp ne i32 %1, 0
  br i1 %cmp, label %if.then, label %if.end

if.then:                                          ; preds = %entry
  %2 = load ptr, ptr %tok.addr, align 8
  call void (ptr, ptr, ...) @error_tok(ptr noundef %2, ptr noundef @.str.66) #9
  unreachable

if.end:                                           ; preds = %entry
  %3 = load ptr, ptr %tok.addr, align 8
  %loc = getelementptr inbounds %struct.Token, ptr %3, i32 0, i32 4
  %4 = load ptr, ptr %loc, align 16
  %5 = load ptr, ptr %tok.addr, align 8
  %len = getelementptr inbounds %struct.Token, ptr %5, i32 0, i32 5
  %6 = load i32, ptr %len, align 8
  %conv = sext i32 %6 to i64
  %call = call noalias ptr @strndup(ptr noundef %4, i64 noundef %conv) #11
  ret ptr %call
}

; Function Attrs: nounwind uwtable
define internal ptr @parse_typedef(ptr noundef %tok, ptr noundef %basety) #0 {
entry:
  %tok.addr = alloca ptr, align 8
  %basety.addr = alloca ptr, align 8
  %first = alloca i8, align 1
  %ty = alloca ptr, align 8
  store ptr %tok, ptr %tok.addr, align 8
  store ptr %basety, ptr %basety.addr, align 8
  store i8 1, ptr %first, align 1
  br label %while.cond

while.cond:                                       ; preds = %if.end5, %entry
  %0 = load ptr, ptr %tok.addr, align 8
  %call = call zeroext i1 @consume(ptr noundef %tok.addr, ptr noundef %0, ptr noundef @.str.99)
  %lnot = xor i1 %call, true
  br i1 %lnot, label %while.body, label %while.end

while.body:                                       ; preds = %while.cond
  %1 = load i8, ptr %first, align 1
  %tobool = trunc i8 %1 to i1
  br i1 %tobool, label %if.end, label %if.then

if.then:                                          ; preds = %while.body
  %2 = load ptr, ptr %tok.addr, align 8
  %call1 = call ptr @skip(ptr noundef %2, ptr noundef @.str.57)
  store ptr %call1, ptr %tok.addr, align 8
  br label %if.end

if.end:                                           ; preds = %if.then, %while.body
  store i8 0, ptr %first, align 1
  %3 = load ptr, ptr %tok.addr, align 8
  %4 = load ptr, ptr %basety.addr, align 8
  %call2 = call ptr @declarator(ptr noundef %tok.addr, ptr noundef %3, ptr noundef %4)
  store ptr %call2, ptr %ty, align 8
  %5 = load ptr, ptr %ty, align 8
  %name = getelementptr inbounds %struct.Type, ptr %5, i32 0, i32 7
  %6 = load ptr, ptr %name, align 8
  %tobool3 = icmp ne ptr %6, null
  br i1 %tobool3, label %if.end5, label %if.then4

if.then4:                                         ; preds = %if.end
  %7 = load ptr, ptr %ty, align 8
  %name_pos = getelementptr inbounds %struct.Type, ptr %7, i32 0, i32 8
  %8 = load ptr, ptr %name_pos, align 8
  call void (ptr, ptr, ...) @error_tok(ptr noundef %8, ptr noundef @.str.141) #9
  unreachable

if.end5:                                          ; preds = %if.end
  %9 = load ptr, ptr %ty, align 8
  %10 = load ptr, ptr %ty, align 8
  %name6 = getelementptr inbounds %struct.Type, ptr %10, i32 0, i32 7
  %11 = load ptr, ptr %name6, align 8
  %call7 = call ptr @get_ident(ptr noundef %11)
  %call8 = call ptr @push_scope(ptr noundef %call7)
  %type_def = getelementptr inbounds %struct.VarScope, ptr %call8, i32 0, i32 1
  store ptr %9, ptr %type_def, align 8
  br label %while.cond, !llvm.loop !11

while.end:                                        ; preds = %while.cond
  %12 = load ptr, ptr %tok.addr, align 8
  ret ptr %12
}