; Function Attrs: nounwind uwtable
define internal fastcc ptr @parse_typedef(ptr noundef %tok, ptr noundef %basety) unnamed_addr #0 {
entry:
  %tok.addr = alloca ptr, align 8
  store ptr %tok, ptr %tok.addr, align 8
  %call7 = call zeroext i1 @consume(ptr noundef nonnull %tok.addr, ptr noundef %tok, ptr noundef nonnull @.str.99) #13
  br i1 %call7, label %while.end, label %if.end.preheader

if.end.preheader:                                 ; preds = %entry
  %.pre = load ptr, ptr %tok.addr, align 8
  %call221 = call fastcc ptr @declarator(ptr noundef nonnull %tok.addr, ptr noundef %.pre, ptr noundef %basety)
  %name22 = getelementptr inbounds %struct.Type, ptr %call221, i64 0, i32 7
  %0 = load ptr, ptr %name22, align 8
  %tobool3.not23 = icmp eq ptr %0, null
  br i1 %tobool3.not23, label %if.then4, label %if.end5

if.then.critedge:                                 ; preds = %get_ident.exit
  %1 = load ptr, ptr %tok.addr, align 8
  %call1 = call ptr @skip(ptr noundef %1, ptr noundef nonnull @.str.57) #13
  store ptr %call1, ptr %tok.addr, align 8
  %call2 = call fastcc ptr @declarator(ptr noundef nonnull %tok.addr, ptr noundef %call1, ptr noundef %basety)
  %name = getelementptr inbounds %struct.Type, ptr %call2, i64 0, i32 7
  %2 = load ptr, ptr %name, align 8
  %tobool3.not = icmp eq ptr %2, null
  br i1 %tobool3.not, label %if.then4, label %if.end5

if.then4:                                         ; preds = %if.then.critedge, %if.end.preheader
  %call2.lcssa = phi ptr [ %call221, %if.end.preheader ], [ %call2, %if.then.critedge ]
  %name_pos = getelementptr inbounds %struct.Type, ptr %call2.lcssa, i64 0, i32 8
  %3 = load ptr, ptr %name_pos, align 8
  call void (ptr, ptr, ...) @error_tok(ptr noundef %3, ptr noundef nonnull @.str.141) #16
  unreachable

if.end5:                                          ; preds = %if.end.preheader, %if.then.critedge
  %4 = phi ptr [ %2, %if.then.critedge ], [ %0, %if.end.preheader ]
  %call224 = phi ptr [ %call2, %if.then.critedge ], [ %call221, %if.end.preheader ]
  %5 = load i32, ptr %4, align 16
  %cmp.not.i = icmp eq i32 %5, 0
  br i1 %cmp.not.i, label %get_ident.exit, label %if.then.i

if.then.i:                                        ; preds = %if.end5
  call void (ptr, ptr, ...) @error_tok(ptr noundef nonnull %4, ptr noundef nonnull @.str.66) #16
  unreachable

get_ident.exit:                                   ; preds = %if.end5
  %loc.i = getelementptr inbounds %struct.Token, ptr %4, i64 0, i32 4
  %6 = load ptr, ptr %loc.i, align 16
  %len.i = getelementptr inbounds %struct.Token, ptr %4, i64 0, i32 5
  %7 = load i32, ptr %len.i, align 8
  %conv.i = sext i32 %7 to i64
  %call.i = call noalias ptr @strndup(ptr noundef %6, i64 noundef %conv.i) #13
  %call.i4 = call noalias dereferenceable_or_null(32) ptr @calloc(i64 noundef 1, i64 noundef 32) #14
  %8 = load ptr, ptr @scope, align 8
  %vars.i = getelementptr inbounds %struct.Scope, ptr %8, i64 0, i32 1
  call void @hashmap_put(ptr noundef nonnull %vars.i, ptr noundef %call.i, ptr noundef %call.i4) #13
  %type_def = getelementptr inbounds %struct.VarScope, ptr %call.i4, i64 0, i32 1
  store ptr %call224, ptr %type_def, align 8
  %9 = load ptr, ptr %tok.addr, align 8
  %call = call zeroext i1 @consume(ptr noundef nonnull %tok.addr, ptr noundef %9, ptr noundef nonnull @.str.99) #13
  br i1 %call, label %while.end, label %if.then.critedge, !llvm.loop !16

while.end:                                        ; preds = %get_ident.exit, %entry
  %10 = load ptr, ptr %tok.addr, align 8
  ret ptr %10
}